target datalayout = "e-m:e-p270:32:32-p271:32:32-p272:64:64-i64:64-i128:128-f80:128-n8:16:32:64-S128"
target triple = "x86_64-pc-linux-gnu"

%struct.asn1_string_st = type { i32, i32, ptr, i64 }
%struct.IPAddressOrRange_st = type { i32, %union.anon.0 }
%union.anon.0 = type { ptr }
%struct.IPAddressRange_st = type { ptr, ptr }

; Function Attrs: nounwind uwtable
define internal i32 @addr_expand(ptr noundef %0, ptr noundef %1, i32 noundef %2, i8 noundef zeroext %3) #0 {
  %5 = alloca i32, align 4
  %6 = alloca ptr, align 8
  %7 = alloca ptr, align 8
  %8 = alloca i32, align 4
  %9 = alloca i8, align 1
  %10 = alloca i8, align 1
  store ptr %0, ptr %6, align 8, !tbaa !45
  store ptr %1, ptr %7, align 8, !tbaa !62
  store i32 %2, ptr %8, align 4, !tbaa !37
  store i8 %3, ptr %9, align 1, !tbaa !34
  %11 = load ptr, ptr %7, align 8, !tbaa !62
  %12 = getelementptr inbounds nuw %struct.asn1_string_st, ptr %11, i32 0, i32 0
  %13 = load i32, ptr %12, align 8, !tbaa !33
  %14 = icmp slt i32 %13, 0
  br i1 %14, label %21, label %15

15:                                               ; preds = %4
  %16 = load ptr, ptr %7, align 8, !tbaa !62
  %17 = getelementptr inbounds nuw %struct.asn1_string_st, ptr %16, i32 0, i32 0
  %18 = load i32, ptr %17, align 8, !tbaa !33
  %19 = load i32, ptr %8, align 4, !tbaa !37
  %20 = icmp sgt i32 %18, %19
  br i1 %20, label %21, label %22

21:                                               ; preds = %15, %4
  store i32 0, ptr %5, align 4
  br label %100

22:                                               ; preds = %15
  %23 = load ptr, ptr %7, align 8, !tbaa !62
  %24 = getelementptr inbounds nuw %struct.asn1_string_st, ptr %23, i32 0, i32 0
  %25 = load i32, ptr %24, align 8, !tbaa !33
  %26 = icmp sgt i32 %25, 0
  br i1 %26, label %27, label %84

27:                                               ; preds = %22
  %28 = load ptr, ptr %6, align 8, !tbaa !45
  %29 = load ptr, ptr %7, align 8, !tbaa !62
  %30 = getelementptr inbounds nuw %struct.asn1_string_st, ptr %29, i32 0, i32 2
  %31 = load ptr, ptr %30, align 8, !tbaa !29
  %32 = load ptr, ptr %7, align 8, !tbaa !62
  %33 = getelementptr inbounds nuw %struct.asn1_string_st, ptr %32, i32 0, i32 0
  %34 = load i32, ptr %33, align 8, !tbaa !33
  %35 = sext i32 %34 to i64
  call void @llvm.memcpy.p0.p0.i64(ptr align 1 %28, ptr align 1 %31, i64 %35, i1 false)
  %36 = load ptr, ptr %7, align 8, !tbaa !62
  %37 = getelementptr inbounds nuw %struct.asn1_string_st, ptr %36, i32 0, i32 3
  %38 = load i64, ptr %37, align 8, !tbaa !55
  %39 = and i64 %38, 7
  %40 = icmp ne i64 %39, 0
  br i1 %40, label %41, label %83

41:                                               ; preds = %27
  call void @llvm.lifetime.start.p0(i64 1, ptr %10) #9
  %42 = load ptr, ptr %7, align 8, !tbaa !62
  %43 = getelementptr inbounds nuw %struct.asn1_string_st, ptr %42, i32 0, i32 3
  %44 = load i64, ptr %43, align 8, !tbaa !55
  %45 = and i64 %44, 7
  %46 = sub nsw i64 8, %45
  %47 = trunc i64 %46 to i32
  %48 = ashr i32 255, %47
  %49 = trunc i32 %48 to i8
  store i8 %49, ptr %10, align 1, !tbaa !34
  %50 = load i8, ptr %9, align 1, !tbaa !34
  %51 = zext i8 %50 to i32
  %52 = icmp eq i32 %51, 0
  br i1 %52, label %53, label %68

53:                                               ; preds = %41
  %54 = load i8, ptr %10, align 1, !tbaa !34
  %55 = zext i8 %54 to i32
  %56 = xor i32 %55, -1
  %57 = load ptr, ptr %6, align 8, !tbaa !45
  %58 = load ptr, ptr %7, align 8, !tbaa !62
  %59 = getelementptr inbounds nuw %struct.asn1_string_st, ptr %58, i32 0, i32 0
  %60 = load i32, ptr %59, align 8, !tbaa !33
  %61 = sub nsw i32 %60, 1
  %62 = sext i32 %61 to i64
  %63 = getelementptr inbounds i8, ptr %57, i64 %62
  %64 = load i8, ptr %63, align 1, !tbaa !34
  %65 = zext i8 %64 to i32
  %66 = and i32 %65, %56
  %67 = trunc i32 %66 to i8
  store i8 %67, ptr %63, align 1, !tbaa !34
  br label %82

68:                                               ; preds = %41
  %69 = load i8, ptr %10, align 1, !tbaa !34
  %70 = zext i8 %69 to i32
  %71 = load ptr, ptr %6, align 8, !tbaa !45
  %72 = load ptr, ptr %7, align 8, !tbaa !62
  %73 = getelementptr inbounds nuw %struct.asn1_string_st, ptr %72, i32 0, i32 0
  %74 = load i32, ptr %73, align 8, !tbaa !33
  %75 = sub nsw i32 %74, 1
  %76 = sext i32 %75 to i64
  %77 = getelementptr inbounds i8, ptr %71, i64 %76
  %78 = load i8, ptr %77, align 1, !tbaa !34
  %79 = zext i8 %78 to i32
  %80 = or i32 %79, %70
  %81 = trunc i32 %80 to i8
  store i8 %81, ptr %77, align 1, !tbaa !34
  br label %82

82:                                               ; preds = %68, %53
  call void @llvm.lifetime.end.p0(i64 1, ptr %10) #9
  br label %83

83:                                               ; preds = %82, %27
  br label %84

84:                                               ; preds = %83, %22
  %85 = load ptr, ptr %6, align 8, !tbaa !45
  %86 = load ptr, ptr %7, align 8, !tbaa !62
  %87 = getelementptr inbounds nuw %struct.asn1_string_st, ptr %86, i32 0, i32 0
  %88 = load i32, ptr %87, align 8, !tbaa !33
  %89 = sext i32 %88 to i64
  %90 = getelementptr inbounds i8, ptr %85, i64 %89
  %91 = load i8, ptr %9, align 1, !tbaa !34
  %92 = zext i8 %91 to i32
  %93 = trunc i32 %92 to i8
  %94 = load i32, ptr %8, align 4, !tbaa !37
  %95 = load ptr, ptr %7, align 8, !tbaa !62
  %96 = getelementptr inbounds nuw %struct.asn1_string_st, ptr %95, i32 0, i32 0
  %97 = load i32, ptr %96, align 8, !tbaa !33
  %98 = sub nsw i32 %94, %97
  %99 = sext i32 %98 to i64
  call void @llvm.memset.p0.i64(ptr align 1 %90, i8 %93, i64 %99, i1 false)
  store i32 1, ptr %5, align 4
  br label %100

100:                                              ; preds = %84, %21
  %101 = load i32, ptr %5, align 4
  ret i32 %101
}

; Function Attrs: nounwind uwtable
define internal i32 @extract_min_max(ptr noundef %0, ptr noundef %1, ptr noundef %2, i32 noundef %3) #0 {
  %5 = alloca i32, align 4
  %6 = alloca ptr, align 8
  %7 = alloca ptr, align 8
  %8 = alloca ptr, align 8
  %9 = alloca i32, align 4
  store ptr %0, ptr %6, align 8, !tbaa !16
  store ptr %1, ptr %7, align 8, !tbaa !45
  store ptr %2, ptr %8, align 8, !tbaa !45
  store i32 %3, ptr %9, align 4, !tbaa !37
  %10 = load ptr, ptr %6, align 8, !tbaa !16
  %11 = icmp eq ptr %10, null
  br i1 %11, label %18, label %12

12:                                               ; preds = %4
  %13 = load ptr, ptr %7, align 8, !tbaa !45
  %14 = icmp eq ptr %13, null
  br i1 %14, label %18, label %15

15:                                               ; preds = %12
  %16 = load ptr, ptr %8, align 8, !tbaa !45
  %17 = icmp eq ptr %16, null
  br i1 %17, label %18, label %19

18:                                               ; preds = %15, %12, %4
  store i32 0, ptr %5, align 4
  br label %66

19:                                               ; preds = %15
  %20 = load ptr, ptr %6, align 8, !tbaa !16
  %21 = getelementptr inbounds nuw %struct.IPAddressOrRange_st, ptr %20, i32 0, i32 0
  %22 = load i32, ptr %21, align 8, !tbaa !48
  switch i32 %22, label %65 [
    i32 0, label %23
    i32 1, label %42
  ]

23:                                               ; preds = %19
  %24 = load ptr, ptr %7, align 8, !tbaa !45
  %25 = load ptr, ptr %6, align 8, !tbaa !16
  %26 = getelementptr inbounds nuw %struct.IPAddressOrRange_st, ptr %25, i32 0, i32 1
  %27 = load ptr, ptr %26, align 8, !tbaa !34
  %28 = load i32, ptr %9, align 4, !tbaa !37
  %29 = call i32 @addr_expand(ptr noundef %24, ptr noundef %27, i32 noundef %28, i8 noundef zeroext 0)
  %30 = icmp ne i32 %29, 0
  br i1 %30, label %31, label %39

31:                                               ; preds = %23
  %32 = load ptr, ptr %8, align 8, !tbaa !45
  %33 = load ptr, ptr %6, align 8, !tbaa !16
  %34 = getelementptr inbounds nuw %struct.IPAddressOrRange_st, ptr %33, i32 0, i32 1
  %35 = load ptr, ptr %34, align 8, !tbaa !34
  %36 = load i32, ptr %9, align 4, !tbaa !37
  %37 = call i32 @addr_expand(ptr noundef %32, ptr noundef %35, i32 noundef %36, i8 noundef zeroext -1)
  %38 = icmp ne i32 %37, 0
  br label %39

39:                                               ; preds = %31, %23
  %40 = phi i1 [ false, %23 ], [ %38, %31 ]
  %41 = zext i1 %40 to i32
  store i32 %41, ptr %5, align 4
  br label %66

42:                                               ; preds = %19
  %43 = load ptr, ptr %7, align 8, !tbaa !45
  %44 = load ptr, ptr %6, align 8, !tbaa !16
  %45 = getelementptr inbounds nuw %struct.IPAddressOrRange_st, ptr %44, i32 0, i32 1
  %46 = load ptr, ptr %45, align 8, !tbaa !34
  %47 = getelementptr inbounds nuw %struct.IPAddressRange_st, ptr %46, i32 0, i32 0
  %48 = load ptr, ptr %47, align 8, !tbaa !50
  %49 = load i32, ptr %9, align 4, !tbaa !37
  %50 = call i32 @addr_expand(ptr noundef %43, ptr noundef %48, i32 noundef %49, i8 noundef zeroext 0)
  %51 = icmp ne i32 %50, 0
  br i1 %51, label %52, label %62

52:                                               ; preds = %42
  %53 = load ptr, ptr %8, align 8, !tbaa !45
  %54 = load ptr, ptr %6, align 8, !tbaa !16
  %55 = getelementptr inbounds nuw %struct.IPAddressOrRange_st, ptr %54, i32 0, i32 1
  %56 = load ptr, ptr %55, align 8, !tbaa !34
  %57 = getelementptr inbounds nuw %struct.IPAddressRange_st, ptr %56, i32 0, i32 1
  %58 = load ptr, ptr %57, align 8, !tbaa !52
  %59 = load i32, ptr %9, align 4, !tbaa !37
  %60 = call i32 @addr_expand(ptr noundef %53, ptr noundef %58, i32 noundef %59, i8 noundef zeroext -1)
  %61 = icmp ne i32 %60, 0
  br label %62

62:                                               ; preds = %52, %42
  %63 = phi i1 [ false, %42 ], [ %61, %52 ]
  %64 = zext i1 %63 to i32
  store i32 %64, ptr %5, align 4
  br label %66

65:                                               ; preds = %19
  store i32 0, ptr %5, align 4
  br label %66

66:                                               ; preds = %65, %62, %39, %18
  %67 = load i32, ptr %5, align 4
  ret i32 %67
}