; Function Attrs: mustprogress nofree norecurse nosync nounwind willreturn memory(readwrite, inaccessiblemem: none) uwtable
define internal fastcc range(i32 0, 2) i32 @extract_min_max(ptr noundef readonly captures(address_is_null) %0, ptr noundef nonnull captures(none) %1, ptr noundef nonnull captures(none) %2, i32 noundef range(i32 0, 17) %3) unnamed_addr #5 {
  %5 = icmp eq ptr %0, null
  br i1 %5, label %addr_expand.exit27, label %6

6:                                                ; preds = %4
  %7 = load i32, ptr %0, align 8, !tbaa !25
  switch i32 %7, label %addr_expand.exit27 [
    i32 0, label %8
    i32 1, label %46
  ]

8:                                                ; preds = %6
  %9 = getelementptr inbounds nuw i8, ptr %0, i64 8
  %10 = load ptr, ptr %9, align 8, !tbaa !16
  %11 = load i32, ptr %10, align 8, !tbaa !15
  %or.cond.i = icmp ugt i32 %11, %3
  br i1 %or.cond.i, label %addr_expand.exit27, label %12

12:                                               ; preds = %8
  %.not.i = icmp eq i32 %11, 0
  br i1 %.not.i, label %30, label %13

13:                                               ; preds = %12
  %14 = getelementptr inbounds nuw i8, ptr %10, i64 8
  %15 = load ptr, ptr %14, align 8, !tbaa !10
  %16 = zext nneg i32 %11 to i64
  tail call void @llvm.memcpy.p0.p0.i64(ptr nonnull align 1 %1, ptr align 1 %15, i64 %16, i1 false)
  %17 = getelementptr inbounds nuw i8, ptr %10, i64 16
  %18 = load i64, ptr %17, align 8, !tbaa !34
  %19 = and i64 %18, 7
  %.not24.i = icmp eq i64 %19, 0
  %.pre46 = load i32, ptr %10, align 8, !tbaa !15
  br i1 %.not24.i, label %30, label %20

20:                                               ; preds = %13
  %21 = trunc nuw nsw i64 %19 to i16
  %22 = sub nuw nsw i16 8, %21
  %23 = ashr i16 -256, %22
  %24 = trunc nsw i16 %23 to i8
  %25 = sext i32 %.pre46 to i64
  %26 = getelementptr i8, ptr %1, i64 %25
  %27 = getelementptr i8, ptr %26, i64 -1
  %28 = load i8, ptr %27, align 1, !tbaa !16
  %29 = and i8 %28, %24
  store i8 %29, ptr %27, align 1, !tbaa !16
  %.pre45 = load i32, ptr %10, align 8, !tbaa !15
  br label %30

30:                                               ; preds = %20, %13, %12
  %31 = phi i32 [ %.pre45, %20 ], [ %.pre46, %13 ], [ 0, %12 ]
  %32 = sext i32 %31 to i64
  %33 = getelementptr inbounds i8, ptr %1, i64 %32
  %34 = sub nsw i32 %3, %31
  %35 = sext i32 %34 to i64
  tail call void @llvm.memset.p0.i64(ptr nonnull align 1 %33, i8 0, i64 %35, i1 false)
  %36 = load ptr, ptr %9, align 8, !tbaa !16
  %37 = load i32, ptr %36, align 8, !tbaa !15
  %or.cond.i23 = icmp ugt i32 %37, %3
  br i1 %or.cond.i23, label %addr_expand.exit27, label %38

38:                                               ; preds = %30
  %.not.i24 = icmp eq i32 %37, 0
  br i1 %.not.i24, label %addr_expand.exit27.sink.split, label %39

39:                                               ; preds = %38
  %40 = getelementptr inbounds nuw i8, ptr %36, i64 8
  %41 = load ptr, ptr %40, align 8, !tbaa !10
  %42 = zext nneg i32 %37 to i64
  tail call void @llvm.memcpy.p0.p0.i64(ptr nonnull align 1 %2, ptr align 1 %41, i64 %42, i1 false)
  %43 = getelementptr inbounds nuw i8, ptr %36, i64 16
  %44 = load i64, ptr %43, align 8, !tbaa !34
  %45 = and i64 %44, 7
  %.not24.i25 = icmp eq i64 %45, 0
  %.pre48 = load i32, ptr %36, align 8, !tbaa !15
  br i1 %.not24.i25, label %addr_expand.exit27.sink.split, label %addr_expand.exit27.sink.split.sink.split

46:                                               ; preds = %6
  %47 = getelementptr inbounds nuw i8, ptr %0, i64 8
  %48 = load ptr, ptr %47, align 8, !tbaa !16
  %49 = load ptr, ptr %48, align 8, !tbaa !29
  %50 = load i32, ptr %49, align 8, !tbaa !15
  %or.cond.i28 = icmp ugt i32 %50, %3
  br i1 %or.cond.i28, label %addr_expand.exit27, label %51

51:                                               ; preds = %46
  %.not.i29 = icmp eq i32 %50, 0
  br i1 %.not.i29, label %69, label %52

52:                                               ; preds = %51
  %53 = getelementptr inbounds nuw i8, ptr %49, i64 8
  %54 = load ptr, ptr %53, align 8, !tbaa !10
  %55 = zext nneg i32 %50 to i64
  tail call void @llvm.memcpy.p0.p0.i64(ptr nonnull align 1 %1, ptr align 1 %54, i64 %55, i1 false)
  %56 = getelementptr inbounds nuw i8, ptr %49, i64 16
  %57 = load i64, ptr %56, align 8, !tbaa !34
  %58 = and i64 %57, 7
  %.not24.i30 = icmp eq i64 %58, 0
  %.pre42 = load i32, ptr %49, align 8, !tbaa !15
  br i1 %.not24.i30, label %69, label %59

59:                                               ; preds = %52
  %60 = trunc nuw nsw i64 %58 to i16
  %61 = sub nuw nsw i16 8, %60
  %62 = ashr i16 -256, %61
  %63 = trunc nsw i16 %62 to i8
  %64 = sext i32 %.pre42 to i64
  %65 = getelementptr i8, ptr %1, i64 %64
  %66 = getelementptr i8, ptr %65, i64 -1
  %67 = load i8, ptr %66, align 1, !tbaa !16
  %68 = and i8 %67, %63
  store i8 %68, ptr %66, align 1, !tbaa !16
  %.pre = load i32, ptr %49, align 8, !tbaa !15
  br label %69

69:                                               ; preds = %59, %52, %51
  %70 = phi i32 [ %.pre, %59 ], [ %.pre42, %52 ], [ 0, %51 ]
  %71 = sext i32 %70 to i64
  %72 = getelementptr inbounds i8, ptr %1, i64 %71
  %73 = sub nsw i32 %3, %70
  %74 = sext i32 %73 to i64
  tail call void @llvm.memset.p0.i64(ptr nonnull align 1 %72, i8 0, i64 %74, i1 false)
  %75 = load ptr, ptr %47, align 8, !tbaa !16
  %76 = getelementptr inbounds nuw i8, ptr %75, i64 8
  %77 = load ptr, ptr %76, align 8, !tbaa !31
  %78 = load i32, ptr %77, align 8, !tbaa !15
  %or.cond.i33 = icmp ugt i32 %78, %3
  br i1 %or.cond.i33, label %addr_expand.exit27, label %79

79:                                               ; preds = %69
  %.not.i34 = icmp eq i32 %78, 0
  br i1 %.not.i34, label %addr_expand.exit27.sink.split, label %80

80:                                               ; preds = %79
  %81 = getelementptr inbounds nuw i8, ptr %77, i64 8
  %82 = load ptr, ptr %81, align 8, !tbaa !10
  %83 = zext nneg i32 %78 to i64
  tail call void @llvm.memcpy.p0.p0.i64(ptr nonnull align 1 %2, ptr align 1 %82, i64 %83, i1 false)
  %84 = getelementptr inbounds nuw i8, ptr %77, i64 16
  %85 = load i64, ptr %84, align 8, !tbaa !34
  %86 = and i64 %85, 7
  %.not24.i35 = icmp eq i64 %86, 0
  %.pre44 = load i32, ptr %77, align 8, !tbaa !15
  br i1 %.not24.i35, label %addr_expand.exit27.sink.split, label %addr_expand.exit27.sink.split.sink.split

addr_expand.exit27.sink.split.sink.split:         ; preds = %80, %39
  %.sink64 = phi i64 [ %45, %39 ], [ %86, %80 ]
  %.pre44.sink = phi i32 [ %.pre48, %39 ], [ %.pre44, %80 ]
  %.sink53 = phi ptr [ %36, %39 ], [ %77, %80 ]
  %87 = trunc nuw nsw i64 %.sink64 to i16
  %88 = sub nuw nsw i16 8, %87
  %89 = lshr i16 255, %88
  %90 = sext i32 %.pre44.sink to i64
  %91 = getelementptr i8, ptr %2, i64 %90
  %92 = getelementptr i8, ptr %91, i64 -1
  %93 = load i8, ptr %92, align 1, !tbaa !16
  %94 = trunc nuw nsw i16 %89 to i8
  %95 = or i8 %93, %94
  store i8 %95, ptr %92, align 1, !tbaa !16
  %.pre43 = load i32, ptr %.sink53, align 8, !tbaa !15
  br label %addr_expand.exit27.sink.split

addr_expand.exit27.sink.split:                    ; preds = %addr_expand.exit27.sink.split.sink.split, %79, %80, %38, %39
  %.sink = phi i32 [ %.pre48, %39 ], [ 0, %38 ], [ %.pre44, %80 ], [ 0, %79 ], [ %.pre43, %addr_expand.exit27.sink.split.sink.split ]
  %96 = sext i32 %.sink to i64
  %97 = getelementptr inbounds i8, ptr %2, i64 %96
  %98 = sub nsw i32 %3, %.sink
  %99 = sext i32 %98 to i64
  tail call void @llvm.memset.p0.i64(ptr nonnull align 1 %97, i8 -1, i64 %99, i1 false)
  br label %addr_expand.exit27

addr_expand.exit27:                               ; preds = %addr_expand.exit27.sink.split, %46, %8, %69, %30, %6, %4
  %.0 = phi i32 [ 0, %4 ], [ 0, %6 ], [ 0, %30 ], [ 0, %69 ], [ 0, %8 ], [ 0, %46 ], [ 1, %addr_expand.exit27.sink.split ]
  ret i32 %.0
}